target datalayout = "e-m:e-p270:32:32-p271:32:32-p272:64:64-i64:64-i128:128-f80:128-n8:16:32:64-S128"
target triple = "x86_64-unknown-linux-gnu"

%"class.std::__cxx11::basic_string" = type { %"struct.std::__cxx11::basic_string<char>::_Alloc_hider", i64, %union.anon }
%"struct.std::__cxx11::basic_string<char>::_Alloc_hider" = type { ptr }
%union.anon = type { i64, [8 x i8] }
%"class.fmt::v8::basic_string_view" = type { ptr, i64 }
%"class.fmt::v8::basic_format_string" = type { %"class.fmt::v8::basic_string_view" }
%"class.fmt::v8::basic_format_args" = type { i64, %union.anon.40 }
%union.anon.40 = type { ptr }
%"class.fmt::v8::format_arg_store" = type { %"struct.fmt::v8::detail::arg_data" }
%"struct.fmt::v8::detail::arg_data" = type { [2 x %"class.fmt::v8::detail::value"] }
%"class.fmt::v8::detail::value" = type { %union.anon.41 }
%union.anon.41 = type { i128 }
%"struct.facebook::velox::ByteRange" = type { ptr, i32, i32 }
%"struct.fmt::v8::detail::arg_mapper" = type { i8 }
%"struct.fmt::v8::detail::string_value" = type { ptr, i64 }

@.str = private unnamed_addr constant [20 x i8] c"[{} starting at {}]\00", align 1

; Function Attrs: mustprogress nounwind uwtable
define linkonce_odr void @_ZN3fmt2v817basic_string_viewIcEC2ISt11char_traitsIcESaIcEEERKNSt7__cxx1112basic_stringIcT_T0_EE(ptr noundef nonnull align 8 dereferenceable(16) %this, ptr noundef nonnull align 8 dereferenceable(32) %s) unnamed_addr #3 comdat align 2 {
entry:
  %this.addr = alloca ptr, align 8
  %s.addr = alloca ptr, align 8
  store ptr %this, ptr %this.addr, align 8
  store ptr %s, ptr %s.addr, align 8
  %this1 = load ptr, ptr %this.addr, align 8
  %data_ = getelementptr inbounds %"class.fmt::v8::basic_string_view", ptr %this1, i32 0, i32 0
  %0 = load ptr, ptr %s.addr, align 8
  %call = call noundef ptr @_ZNKSt7__cxx1112basic_stringIcSt11char_traitsIcESaIcEE4dataEv(ptr noundef nonnull align 8 dereferenceable(32) %0) #14
  store ptr %call, ptr %data_, align 8
  %size_ = getelementptr inbounds %"class.fmt::v8::basic_string_view", ptr %this1, i32 0, i32 1
  %1 = load ptr, ptr %s.addr, align 8
  %call2 = call noundef i64 @_ZNKSt7__cxx1112basic_stringIcSt11char_traitsIcESaIcEE4sizeEv(ptr noundef nonnull align 8 dereferenceable(32) %1) #14
  store i64 %call2, ptr %size_, align 8
  ret void
}

; Function Attrs: mustprogress nounwind uwtable
define linkonce_odr noundef i64 @_ZNK3fmt2v817basic_string_viewIcE4sizeEv(ptr noundef nonnull align 8 dereferenceable(16) %this) #3 comdat align 2 {
entry:
  %this.addr = alloca ptr, align 8
  store ptr %this, ptr %this.addr, align 8
  %this1 = load ptr, ptr %this.addr, align 8
  %size_ = getelementptr inbounds %"class.fmt::v8::basic_string_view", ptr %this1, i32 0, i32 1
  %0 = load i64, ptr %size_, align 8
  ret i64 %0
}

; Function Attrs: mustprogress nounwind uwtable
define linkonce_odr noundef ptr @_ZNK3fmt2v817basic_string_viewIcE4dataEv(ptr noundef nonnull align 8 dereferenceable(16) %this) #3 comdat align 2 {
entry:
  %this.addr = alloca ptr, align 8
  store ptr %this, ptr %this.addr, align 8
  %this1 = load ptr, ptr %this.addr, align 8
  %data_ = getelementptr inbounds %"class.fmt::v8::basic_string_view", ptr %this1, i32 0, i32 0
  %0 = load ptr, ptr %data_, align 8
  ret ptr %0
}

; Function Attrs: mustprogress nounwind uwtable
define linkonce_odr { ptr, i64 } @_ZN3fmt2v814to_string_viewIcSt11char_traitsIcESaIcEEENS0_17basic_string_viewIT_EERKNSt7__cxx1112basic_stringIS6_T0_T1_EE(ptr noundef nonnull align 8 dereferenceable(32) %s) #3 comdat {
entry:
  %retval = alloca %"class.fmt::v8::basic_string_view", align 8
  %s.addr = alloca ptr, align 8
  store ptr %s, ptr %s.addr, align 8
  %0 = load ptr, ptr %s.addr, align 8
  call void @_ZN3fmt2v817basic_string_viewIcEC2ISt11char_traitsIcESaIcEEERKNSt7__cxx1112basic_stringIcT_T0_EE(ptr noundef nonnull align 8 dereferenceable(16) %retval, ptr noundef nonnull align 8 dereferenceable(32) %0) #14
  %1 = load { ptr, i64 }, ptr %retval, align 8
  ret { ptr, i64 } %1
}

; Function Attrs: mustprogress uwtable
define linkonce_odr void @_ZN3fmt2v816make_format_argsINS0_20basic_format_contextINS0_8appenderEcEEJRNSt7__cxx1112basic_stringIcSt11char_traitsIcESaIcEEERKiEEENS0_16format_arg_storeIT_JDpNSt9remove_cvINSt16remove_referenceIT0_E4typeEE4typeEEEEDpOSI_(ptr noalias sret(%"class.fmt::v8::format_arg_store") align 16 %agg.result, ptr noundef nonnull align 8 dereferenceable(32) %args, ptr noundef nonnull align 4 dereferenceable(4) %args1) #0 comdat {
entry:
  %this.addr.i28 = alloca ptr, align 8
  %val.addr.i29 = alloca i32, align 4
  %this.addr.i25 = alloca ptr, align 8
  %val.addr.i26 = alloca i32, align 4
  %val.i = alloca %"class.fmt::v8::basic_string_view", align 8
  %this.addr.i22 = alloca ptr, align 8
  %retval.i17 = alloca %"class.fmt::v8::basic_string_view", align 8
  %this.addr.i18 = alloca ptr, align 8
  %val.addr.i19 = alloca ptr, align 8
  %this.addr.i16 = alloca ptr, align 8
  %.addr.i = alloca ptr, align 8
  %.addr1.i = alloca i32, align 4
  %.addr2.i = alloca i32, align 4
  %.addr3.i = alloca ptr, align 8
  %.addr4.i = alloca ptr, align 8
  %this.addr.i14 = alloca ptr, align 8
  %init.addr.i = alloca ptr, align 8
  %init.addr2.i = alloca ptr, align 8
  %retval.i5 = alloca %"class.fmt::v8::detail::value", align 16
  %val.addr.i6 = alloca ptr, align 8
  %arg.i7 = alloca ptr, align 8
  %ref.tmp.i8 = alloca i32, align 4
  %ref.tmp1.i9 = alloca %"struct.fmt::v8::detail::arg_mapper", align 1
  %formattable_char.i10 = alloca i8, align 1
  %formattable_const.i11 = alloca i8, align 1
  %formattable_pointer.i12 = alloca i8, align 1
  %formattable.i13 = alloca i8, align 1
  %retval.i = alloca %"class.fmt::v8::detail::value", align 16
  %val.addr.i = alloca ptr, align 8
  %arg.i = alloca ptr, align 8
  %ref.tmp.i3 = alloca %"class.fmt::v8::basic_string_view", align 8
  %ref.tmp1.i = alloca %"struct.fmt::v8::detail::arg_mapper", align 1
  %formattable_char.i = alloca i8, align 1
  %formattable_const.i = alloca i8, align 1
  %formattable_pointer.i = alloca i8, align 1
  %formattable.i = alloca i8, align 1
  %agg.tmp.i = alloca %"class.fmt::v8::basic_string_view", align 8
  %this.addr.i = alloca ptr, align 8
  %args.addr.i = alloca ptr, align 8
  %args.addr2.i = alloca ptr, align 8
  %ref.tmp.i = alloca %"class.fmt::v8::detail::value", align 16
  %ref.tmp5.i = alloca %"class.fmt::v8::detail::value", align 16
  %args.addr = alloca ptr, align 8
  %args.addr2 = alloca ptr, align 8
  store ptr %args, ptr %args.addr, align 8
  store ptr %args1, ptr %args.addr2, align 8
  %0 = load ptr, ptr %args.addr, align 8
  %1 = load ptr, ptr %args.addr2, align 8
  store ptr %agg.result, ptr %this.addr.i, align 8
  store ptr %0, ptr %args.addr.i, align 8
  store ptr %1, ptr %args.addr2.i, align 8
  %this3.i = load ptr, ptr %this.addr.i, align 8
  %2 = load ptr, ptr %args.addr.i, align 8
  store ptr %2, ptr %val.addr.i, align 8
  %3 = load ptr, ptr %val.addr.i, align 8
  store ptr %ref.tmp1.i, ptr %this.addr.i18, align 8
  store ptr %3, ptr %val.addr.i19, align 8
  %4 = load ptr, ptr %val.addr.i19, align 8
  %call.i21 = call { ptr, i64 } @_ZN3fmt2v814to_string_viewIcSt11char_traitsIcESaIcEEENS0_17basic_string_viewIT_EERKNSt7__cxx1112basic_stringIS6_T0_T1_EE(ptr noundef nonnull align 8 dereferenceable(32) %4)
  %5 = extractvalue { ptr, i64 } %call.i21, 0
  store ptr %5, ptr %retval.i17, align 8
  %6 = getelementptr inbounds { ptr, i64 }, ptr %retval.i17, i32 0, i32 1
  %7 = extractvalue { ptr, i64 } %call.i21, 1
  store i64 %7, ptr %6, align 8
  %8 = load { ptr, i64 }, ptr %retval.i17, align 8
  %9 = extractvalue { ptr, i64 } %8, 0
  store ptr %9, ptr %ref.tmp.i3, align 8
  %10 = getelementptr inbounds { ptr, i64 }, ptr %ref.tmp.i3, i32 0, i32 1
  %11 = extractvalue { ptr, i64 } %8, 1
  store i64 %11, ptr %10, align 8
  store ptr %ref.tmp.i3, ptr %arg.i, align 8
  store i8 1, ptr %formattable_char.i, align 1
  store i8 1, ptr %formattable_const.i, align 1
  store i8 1, ptr %formattable_pointer.i, align 1
  store i8 1, ptr %formattable.i, align 1
  %12 = load ptr, ptr %arg.i, align 8
  call void @llvm.memcpy.p0.p0.i64(ptr align 8 %agg.tmp.i, ptr align 8 %12, i64 16, i1 false)
  %13 = load ptr, ptr %agg.tmp.i, align 8
  %14 = getelementptr inbounds { ptr, i64 }, ptr %agg.tmp.i, i32 0, i32 1
  %15 = load i64, ptr %14, align 8
  store ptr %13, ptr %val.i, align 8
  %16 = getelementptr inbounds { ptr, i64 }, ptr %val.i, i32 0, i32 1
  store i64 %15, ptr %16, align 8
  store ptr %retval.i, ptr %this.addr.i22, align 8
  %this1.i23 = load ptr, ptr %this.addr.i22, align 8
  %call.i24 = call noundef ptr @_ZNK3fmt2v817basic_string_viewIcE4dataEv(ptr noundef nonnull align 8 dereferenceable(16) %val.i) #14
  store ptr %call.i24, ptr %this1.i23, align 16
  %call2.i = call noundef i64 @_ZNK3fmt2v817basic_string_viewIcE4sizeEv(ptr noundef nonnull align 8 dereferenceable(16) %val.i) #14
  %size.i = getelementptr inbounds %"struct.fmt::v8::detail::string_value", ptr %this1.i23, i32 0, i32 1
  store i64 %call2.i, ptr %size.i, align 8
  %17 = load { i64, i64 }, ptr %retval.i, align 16
  %18 = extractvalue { i64, i64 } %17, 0
  store i64 %18, ptr %ref.tmp.i, align 16
  %19 = getelementptr inbounds { i64, i64 }, ptr %ref.tmp.i, i32 0, i32 1
  %20 = extractvalue { i64, i64 } %17, 1
  store i64 %20, ptr %19, align 8
  %21 = load ptr, ptr %args.addr2.i, align 8
  store ptr %21, ptr %val.addr.i6, align 8
  %22 = load ptr, ptr %val.addr.i6, align 8
  %23 = load i32, ptr %22, align 4
  store ptr %ref.tmp1.i9, ptr %this.addr.i25, align 8
  store i32 %23, ptr %val.addr.i26, align 4
  %24 = load i32, ptr %val.addr.i26, align 4
  store i32 %24, ptr %ref.tmp.i8, align 4
  store ptr %ref.tmp.i8, ptr %arg.i7, align 8
  store i8 1, ptr %formattable_char.i10, align 1
  store i8 1, ptr %formattable_const.i11, align 1
  store i8 1, ptr %formattable_pointer.i12, align 1
  store i8 1, ptr %formattable.i13, align 1
  %25 = load ptr, ptr %arg.i7, align 8
  %26 = load i32, ptr %25, align 4
  store ptr %retval.i5, ptr %this.addr.i28, align 8
  store i32 %26, ptr %val.addr.i29, align 4
  %this1.i30 = load ptr, ptr %this.addr.i28, align 8
  %27 = load i32, ptr %val.addr.i29, align 4
  store i32 %27, ptr %this1.i30, align 16
  %28 = load { i64, i64 }, ptr %retval.i5, align 16
  %29 = extractvalue { i64, i64 } %28, 0
  store i64 %29, ptr %ref.tmp5.i, align 16
  %30 = getelementptr inbounds { i64, i64 }, ptr %ref.tmp5.i, i32 0, i32 1
  %31 = extractvalue { i64, i64 } %28, 1
  store i64 %31, ptr %30, align 8
  store ptr %this3.i, ptr %this.addr.i14, align 8
  store ptr %ref.tmp.i, ptr %init.addr.i, align 8
  store ptr %ref.tmp5.i, ptr %init.addr2.i, align 8
  %this3.i15 = load ptr, ptr %this.addr.i14, align 8
  %32 = load ptr, ptr %init.addr.i, align 8
  call void @llvm.memcpy.p0.p0.i64(ptr align 16 %this3.i15, ptr align 16 %32, i64 16, i1 false)
  %arrayinit.element.i = getelementptr inbounds %"class.fmt::v8::detail::value", ptr %this3.i15, i64 1
  %33 = load ptr, ptr %init.addr2.i, align 8
  call void @llvm.memcpy.p0.p0.i64(ptr align 16 %arrayinit.element.i, ptr align 16 %33, i64 16, i1 false)
  store ptr %this3.i, ptr %this.addr.i16, align 8
  %34 = load ptr, ptr %args.addr.i, align 8
  %35 = load ptr, ptr %args.addr2.i, align 8
  store ptr null, ptr %.addr.i, align 8
  store i32 0, ptr %.addr1.i, align 4
  store i32 0, ptr %.addr2.i, align 4
  store ptr %34, ptr %.addr3.i, align 8
  store ptr %35, ptr %.addr4.i, align 8
  ret void
}

; Function Attrs: mustprogress nounwind uwtable
define linkonce_odr noundef i64 @_ZNSt11char_traitsIcE6lengthEPKc(ptr noundef %__s) #3 comdat align 2 {
entry:
  %__s.addr = alloca ptr, align 8
  store ptr %__s, ptr %__s.addr, align 8
  %0 = load ptr, ptr %__s.addr, align 8
  %call = call i64 @strlen(ptr noundef %0) #14
  ret i64 %call
}

; Function Attrs: mustprogress uwtable
define void @_ZNK8facebook5velox9ByteRange8toStringB5cxx11Ev(ptr noalias sret(%"class.std::__cxx11::basic_string") align 8 %agg.result, ptr noundef nonnull align 8 dereferenceable(16) %this) #0 align 2 personality ptr @__gxx_personality_v0 {
entry:
  %.addr.i = alloca ptr, align 8
  %this.addr.i13 = alloca ptr, align 8
  %s.addr.i14 = alloca ptr, align 8
  %this.addr.i11 = alloca ptr, align 8
  %desc.addr.i = alloca i64, align 8
  %values.addr.i = alloca ptr, align 8
  %this.addr.i9 = alloca ptr, align 8
  %this.addr.i7 = alloca ptr, align 8
  %store.addr.i = alloca ptr, align 8
  %retval.i = alloca %"class.fmt::v8::basic_string_view", align 8
  %this.addr.i5 = alloca ptr, align 8
  %this.addr.i = alloca ptr, align 8
  %s.addr.i = alloca ptr, align 8
  %result.ptr.i = alloca ptr, align 8
  %fmt.i = alloca %"class.fmt::v8::basic_format_string", align 8
  %args.addr.i = alloca ptr, align 8
  %args.addr2.i = alloca ptr, align 8
  %agg.tmp.i = alloca %"class.fmt::v8::basic_string_view", align 8
  %agg.tmp3.i = alloca %"class.fmt::v8::basic_format_args", align 8
  %ref.tmp.i = alloca %"class.fmt::v8::format_arg_store", align 16
  %result.ptr = alloca ptr, align 8
  %this.addr = alloca ptr, align 8
  %agg.tmp = alloca %"class.fmt::v8::basic_format_string", align 8
  %ref.tmp = alloca %"class.std::__cxx11::basic_string", align 8
  %exn.slot = alloca ptr, align 8
  %ehselector.slot = alloca i32, align 4
  store ptr %agg.result, ptr %result.ptr, align 8
  store ptr %this, ptr %this.addr, align 8
  %this1 = load ptr, ptr %this.addr, align 8
  store ptr %agg.tmp, ptr %this.addr.i, align 8
  store ptr @.str, ptr %s.addr.i, align 8
  %this1.i = load ptr, ptr %this.addr.i, align 8
  %0 = load ptr, ptr %s.addr.i, align 8
  store ptr %this1.i, ptr %this.addr.i13, align 8
  store ptr %0, ptr %s.addr.i14, align 8
  %this1.i15 = load ptr, ptr %this.addr.i13, align 8
  %1 = load ptr, ptr %s.addr.i14, align 8
  store ptr %1, ptr %this1.i15, align 8
  %size_.i = getelementptr inbounds %"class.fmt::v8::basic_string_view", ptr %this1.i15, i32 0, i32 1
  %2 = load ptr, ptr %s.addr.i14, align 8
  %call.i = call noundef i64 @_ZNSt11char_traitsIcE6lengthEPKc(ptr noundef %2)
  store i64 %call.i, ptr %size_.i, align 8
  %3 = load ptr, ptr %s.addr.i, align 8
  store ptr %3, ptr %.addr.i, align 8
  %size = getelementptr inbounds %"struct.facebook::velox::ByteRange", ptr %this1, i32 0, i32 1
  %4 = load i32, ptr %size, align 8
  %conv = sext i32 %4 to i64
  call void @_ZN8facebook5velox13succinctBytesB5cxx11Emi(ptr sret(%"class.std::__cxx11::basic_string") align 8 %ref.tmp, i64 noundef %conv, i32 noundef 2)
  %position = getelementptr inbounds %"struct.facebook::velox::ByteRange", ptr %this1, i32 0, i32 2
  %5 = getelementptr inbounds { ptr, i64 }, ptr %agg.tmp, i32 0, i32 0
  %6 = load ptr, ptr %5, align 8
  %7 = getelementptr inbounds { ptr, i64 }, ptr %agg.tmp, i32 0, i32 1
  %8 = load i64, ptr %7, align 8
  call void @llvm.experimental.noalias.scope.decl(metadata !4)
  store ptr %agg.result, ptr %result.ptr.i, align 8, !noalias !4
  store ptr %6, ptr %fmt.i, align 8, !noalias !4
  %9 = getelementptr inbounds { ptr, i64 }, ptr %fmt.i, i32 0, i32 1
  store i64 %8, ptr %9, align 8, !noalias !4
  store ptr %ref.tmp, ptr %args.addr.i, align 8, !noalias !4
  store ptr %position, ptr %args.addr2.i, align 8, !noalias !4
  store ptr %fmt.i, ptr %this.addr.i5, align 8
  %this1.i6 = load ptr, ptr %this.addr.i5, align 8
  call void @llvm.memcpy.p0.p0.i64(ptr align 8 %retval.i, ptr align 8 %this1.i6, i64 16, i1 false)
  %10 = load { ptr, i64 }, ptr %retval.i, align 8
  %11 = extractvalue { ptr, i64 } %10, 0
  store ptr %11, ptr %agg.tmp.i, align 8, !noalias !4
  %12 = getelementptr inbounds { ptr, i64 }, ptr %agg.tmp.i, i32 0, i32 1
  %13 = extractvalue { ptr, i64 } %10, 1
  store i64 %13, ptr %12, align 8, !noalias !4
  %14 = load ptr, ptr %args.addr.i, align 8, !noalias !4
  %15 = load ptr, ptr %args.addr2.i, align 8, !noalias !4
  invoke void @_ZN3fmt2v816make_format_argsINS0_20basic_format_contextINS0_8appenderEcEEJRNSt7__cxx1112basic_stringIcSt11char_traitsIcESaIcEEERKiEEENS0_16format_arg_storeIT_JDpNSt9remove_cvINSt16remove_referenceIT0_E4typeEE4typeEEEEDpOSI_(ptr sret(%"class.fmt::v8::format_arg_store") align 16 %ref.tmp.i, ptr noundef nonnull align 8 dereferenceable(32) %14, ptr noundef nonnull align 4 dereferenceable(4) %15)
          to label %.noexc unwind label %lpad

.noexc:                                           ; preds = %entry
  store ptr %agg.tmp3.i, ptr %this.addr.i7, align 8
  store ptr %ref.tmp.i, ptr %store.addr.i, align 8
  %this1.i8 = load ptr, ptr %this.addr.i7, align 8
  %16 = load ptr, ptr %store.addr.i, align 8
  store ptr %16, ptr %this.addr.i9, align 8
  %this1.i10 = load ptr, ptr %this.addr.i9, align 8
  store ptr %this1.i8, ptr %this.addr.i11, align 8
  store i64 29, ptr %desc.addr.i, align 8
  store ptr %this1.i10, ptr %values.addr.i, align 8
  %this1.i12 = load ptr, ptr %this.addr.i11, align 8
  %17 = load i64, ptr %desc.addr.i, align 8
  store i64 %17, ptr %this1.i12, align 8
  %18 = getelementptr inbounds %"class.fmt::v8::basic_format_args", ptr %this1.i12, i32 0, i32 1
  %19 = load ptr, ptr %values.addr.i, align 8
  store ptr %19, ptr %18, align 8
  br label %.noexc3

.noexc3:                                          ; preds = %.noexc
  %20 = load ptr, ptr %agg.tmp.i, align 8, !noalias !4
  %21 = getelementptr inbounds { ptr, i64 }, ptr %agg.tmp.i, i32 0, i32 1
  %22 = load i64, ptr %21, align 8, !noalias !4
  %23 = load i64, ptr %agg.tmp3.i, align 8, !noalias !4
  %24 = getelementptr inbounds { i64, ptr }, ptr %agg.tmp3.i, i32 0, i32 1
  %25 = load ptr, ptr %24, align 8, !noalias !4
  invoke void @_ZN3fmt2v87vformatB5cxx11ENS0_17basic_string_viewIcEENS0_17basic_format_argsINS0_20basic_format_contextINS0_8appenderEcEEEE(ptr sret(%"class.std::__cxx11::basic_string") align 8 %agg.result, ptr %20, i64 %22, i64 %23, ptr %25)
          to label %_ZN3fmt2v86formatIJNSt7__cxx1112basic_stringIcSt11char_traitsIcESaIcEEERKiEEES7_NS0_19basic_format_stringIcJDpNS0_13type_identityIT_E4typeEEEEDpOSC_.exit unwind label %lpad

_ZN3fmt2v86formatIJNSt7__cxx1112basic_stringIcSt11char_traitsIcESaIcEEERKiEEES7_NS0_19basic_format_stringIcJDpNS0_13type_identityIT_E4typeEEEEDpOSC_.exit: ; preds = %.noexc3
  br label %invoke.cont

invoke.cont:                                      ; preds = %_ZN3fmt2v86formatIJNSt7__cxx1112basic_stringIcSt11char_traitsIcESaIcEEERKiEEES7_NS0_19basic_format_stringIcJDpNS0_13type_identityIT_E4typeEEEEDpOSC_.exit
  call void @_ZNSt7__cxx1112basic_stringIcSt11char_traitsIcESaIcEED1Ev(ptr noundef nonnull align 8 dereferenceable(32) %ref.tmp) #14
  ret void

lpad:                                             ; preds = %.noexc3, %entry
  %26 = landingpad { ptr, i32 }
          cleanup
  %27 = extractvalue { ptr, i32 } %26, 0
  store ptr %27, ptr %exn.slot, align 8
  %28 = extractvalue { ptr, i32 } %26, 1
  store i32 %28, ptr %ehselector.slot, align 4
  call void @_ZNSt7__cxx1112basic_stringIcSt11char_traitsIcESaIcEED1Ev(ptr noundef nonnull align 8 dereferenceable(32) %ref.tmp) #14
  br label %eh.resume

eh.resume:                                        ; preds = %lpad
  %exn = load ptr, ptr %exn.slot, align 8
  %sel = load i32, ptr %ehselector.slot, align 4
  %lpad.val = insertvalue { ptr, i32 } poison, ptr %exn, 0
  %lpad.val2 = insertvalue { ptr, i32 } %lpad.val, i32 %sel, 1
  resume { ptr, i32 } %lpad.val2
}