; Function Attrs: mustprogress uwtable
define void @_ZNK8facebook5velox9ByteRange8toStringB5cxx11Ev(ptr noalias sret(%"class.std::__cxx11::basic_string") align 8 %agg.result, ptr nocapture noundef nonnull readonly align 8 dereferenceable(16) %this) local_unnamed_addr #0 align 2 personality ptr @__gxx_personality_v0 {
.noexc:
  %ref.tmp.i = alloca %"class.fmt::v8::format_arg_store", align 16
  %ref.tmp = alloca %"class.std::__cxx11::basic_string", align 8
  %size = getelementptr inbounds i8, ptr %this, i64 8
  %0 = load i32, ptr %size, align 8
  %conv = sext i32 %0 to i64
  call void @_ZN8facebook5velox13succinctBytesB5cxx11Emi(ptr nonnull sret(%"class.std::__cxx11::basic_string") align 8 %ref.tmp, i64 noundef %conv, i32 noundef 2)
  %position = getelementptr inbounds i8, ptr %this, i64 12
  call void @llvm.experimental.noalias.scope.decl(metadata !4)
  %call.i.i.i = call noundef ptr @_ZNKSt7__cxx1112basic_stringIcSt11char_traitsIcESaIcEE4dataEv(ptr noundef nonnull align 8 dereferenceable(32) %ref.tmp) #21, !noalias !4
  %call2.i.i.i = call noundef i64 @_ZNKSt7__cxx1112basic_stringIcSt11char_traitsIcESaIcEE4sizeEv(ptr noundef nonnull align 8 dereferenceable(32) %ref.tmp) #21, !noalias !4
  %1 = ptrtoint ptr %call.i.i.i to i64
  %2 = load i32, ptr %position, align 4, !noalias !4
  %retval.i5.sroa.0.0.insert.ext.i = zext i32 %2 to i64
  store i64 %1, ptr %ref.tmp.i, align 16, !alias.scope !4
  %ref.tmp.i.sroa.2.0.agg.result.sroa_idx.i = getelementptr inbounds i8, ptr %ref.tmp.i, i64 8
  store i64 %call2.i.i.i, ptr %ref.tmp.i.sroa.2.0.agg.result.sroa_idx.i, align 8, !alias.scope !4
  %arrayinit.element.i.i = getelementptr inbounds i8, ptr %ref.tmp.i, i64 16
  store i64 %retval.i5.sroa.0.0.insert.ext.i, ptr %arrayinit.element.i.i, align 16, !alias.scope !4
  invoke void @_ZN3fmt2v87vformatB5cxx11ENS0_17basic_string_viewIcEENS0_17basic_format_argsINS0_20basic_format_contextINS0_8appenderEcEEEE(ptr sret(%"class.std::__cxx11::basic_string") align 8 %agg.result, ptr nonnull @.str, i64 19, i64 29, ptr nonnull %ref.tmp.i)
          to label %invoke.cont unwind label %lpad

invoke.cont:                                      ; preds = %.noexc
  call void @_ZNSt7__cxx1112basic_stringIcSt11char_traitsIcESaIcEED1Ev(ptr noundef nonnull align 8 dereferenceable(32) %ref.tmp) #21
  ret void

lpad:                                             ; preds = %.noexc
  %3 = landingpad { ptr, i32 }
          cleanup
  call void @_ZNSt7__cxx1112basic_stringIcSt11char_traitsIcESaIcEED1Ev(ptr noundef nonnull align 8 dereferenceable(32) %ref.tmp) #21
  resume { ptr, i32 } %3
}